; Function Attrs: nounwind uwtable
define internal ptr @_testcapi_unwatch_type(ptr readnone captures(none) %0, ptr noundef readonly captures(none) %1, i64 noundef %2) #0 {
  %or.cond = icmp eq i64 %2, 2
  br i1 %or.cond, label %6, label %4

4:                                                ; preds = %3
  %5 = tail call i32 @_PyArg_CheckPositional(ptr noundef nonnull @.str.13, i64 noundef %2, i64 noundef 2, i64 noundef 2) #6
  %.not = icmp eq i32 %5, 0
  br i1 %.not, label %15, label %6

6:                                                ; preds = %3, %4
  %7 = load ptr, ptr %1, align 8, !tbaa !21
  %8 = tail call i32 @PyLong_AsInt(ptr noundef %7) #6
  %9 = icmp eq i32 %8, -1
  br i1 %9, label %10, label %.sink.split

10:                                               ; preds = %6
  %11 = tail call ptr @PyErr_Occurred() #6
  %.not12 = icmp eq ptr %11, null
  br i1 %.not12, label %.sink.split, label %15

.sink.split:                                      ; preds = %10, %6
  %.sink15 = phi i32 [ %8, %6 ], [ -1, %10 ]
  %12 = getelementptr i8, ptr %1, i64 8
  %13 = load ptr, ptr %12, align 8, !tbaa !21
  %14 = tail call i32 @PyType_Unwatch(i32 noundef %.sink15, ptr noundef %13) #6
  %.not.i = icmp eq i32 %14, 0
  %_Py_NoneStruct..i = select i1 %.not.i, ptr @_Py_NoneStruct, ptr null
  br label %15

15:                                               ; preds = %.sink.split, %10, %4
  %.0 = phi ptr [ null, %10 ], [ null, %4 ], [ %_Py_NoneStruct..i, %.sink.split ]
  ret ptr %.0
}